; ModuleID = '51/891.c'
source_filename = "51/891.c"
target datalayout = "e-m:e-p270:32:32-p271:32:32-p272:64:64-i64:64-f80:128-n8:16:32:64-S128"
target triple = "x86_64-pc-linux-gnu"

@.str = private unnamed_addr constant [3 x i8] c"%d\00", align 1
@.str.1 = private unnamed_addr constant [3 x i8] c"%s\00", align 1
@.str.2 = private unnamed_addr constant [3 x i8] c"NO\00", align 1
@.str.3 = private unnamed_addr constant [4 x i8] c"%d\0A\00", align 1
@.str.4 = private unnamed_addr constant [3 x i8] c"%c\00", align 1
@.str.5 = private unnamed_addr constant [2 x i8] c"\0A\00", align 1

; Function Attrs: noinline nounwind uwtable
define dso_local i32 @main(i32 %0, i8** %1) #0 {
  %3 = alloca i32, align 4
  %4 = alloca i32, align 4
  %5 = alloca i8**, align 8
  %6 = alloca [600 x i8], align 16
  %7 = alloca i32, align 4
  %8 = alloca i32, align 4
  %9 = alloca i32, align 4
  %10 = alloca i32, align 4
  %11 = alloca [500 x i32], align 16
  %12 = alloca i32, align 4
  %13 = alloca i32, align 4
  store i32 0, i32* %3, align 4
  store i32 %0, i32* %4, align 4
  store i8** %1, i8*** %5, align 8
  %14 = call i32 (i8*, ...) @__isoc99_scanf(i8* getelementptr inbounds ([3 x i8], [3 x i8]* @.str, i64 0, i64 0), i32* %7)
  %15 = getelementptr inbounds [600 x i8], [600 x i8]* %6, i64 0, i64 0
  %16 = call i32 (i8*, ...) @__isoc99_scanf(i8* getelementptr inbounds ([3 x i8], [3 x i8]* @.str.1, i64 0, i64 0), i8* %15)
  %17 = getelementptr inbounds [600 x i8], [600 x i8]* %6, i64 0, i64 0
  %18 = call i64 @strlen(i8* %17) #4
  %19 = trunc i64 %18 to i32
  store i32 %19, i32* %10, align 4
  %20 = bitcast [500 x i32]* %11 to i8*
  call void @llvm.memset.p0i8.i64(i8* align 16 %20, i8 0, i64 2000, i1 false)
  store i32 0, i32* %12, align 4
  store i32 0, i32* %8, align 4
  br label %21

21:                                               ; preds = %73, %2
  %22 = load i32, i32* %8, align 4
  %23 = load i32, i32* %10, align 4
  %24 = icmp slt i32 %22, %23
  br i1 %24, label %25, label %76

25:                                               ; preds = %21
  %26 = load i32, i32* %8, align 4
  %27 = add nsw i32 1, %26
  store i32 %27, i32* %9, align 4
  br label %28

28:                                               ; preds = %69, %25
  %29 = load i32, i32* %9, align 4
  %30 = load i32, i32* %10, align 4
  %31 = icmp slt i32 %29, %30
  br i1 %31, label %32, label %72

32:                                               ; preds = %28
  store i32 0, i32* %13, align 4
  br label %33

33:                                               ; preds = %55, %32
  %34 = load i32, i32* %13, align 4
  %35 = load i32, i32* %7, align 4
  %36 = icmp slt i32 %34, %35
  br i1 %36, label %37, label %58

37:                                               ; preds = %33
  %38 = load i32, i32* %8, align 4
  %39 = load i32, i32* %13, align 4
  %40 = add nsw i32 %38, %39
  %41 = sext i32 %40 to i64
  %42 = getelementptr inbounds [600 x i8], [600 x i8]* %6, i64 0, i64 %41
  %43 = load i8, i8* %42, align 1
  %44 = sext i8 %43 to i32
  %45 = load i32, i32* %9, align 4
  %46 = load i32, i32* %13, align 4
  %47 = add nsw i32 %45, %46
  %48 = sext i32 %47 to i64
  %49 = getelementptr inbounds [600 x i8], [600 x i8]* %6, i64 0, i64 %48
  %50 = load i8, i8* %49, align 1
  %51 = sext i8 %50 to i32
  %52 = icmp ne i32 %44, %51
  br i1 %52, label %53, label %54

53:                                               ; preds = %37
  br label %58

54:                                               ; preds = %37
  br label %55

55:                                               ; preds = %54
  %56 = load i32, i32* %13, align 4
  %57 = add nsw i32 %56, 1
  store i32 %57, i32* %13, align 4
  br label %33

58:                                               ; preds = %53, %33
  %59 = load i32, i32* %13, align 4
  %60 = load i32, i32* %7, align 4
  %61 = icmp eq i32 %59, %60
  br i1 %61, label %62, label %68

62:                                               ; preds = %58
  %63 = load i32, i32* %8, align 4
  %64 = sext i32 %63 to i64
  %65 = getelementptr inbounds [500 x i32], [500 x i32]* %11, i64 0, i64 %64
  %66 = load i32, i32* %65, align 4
  %67 = add nsw i32 %66, 1
  store i32 %67, i32* %65, align 4
  br label %68

68:                                               ; preds = %62, %58
  br label %69

69:                                               ; preds = %68
  %70 = load i32, i32* %9, align 4
  %71 = add nsw i32 %70, 1
  store i32 %71, i32* %9, align 4
  br label %28

72:                                               ; preds = %28
  br label %73

73:                                               ; preds = %72
  %74 = load i32, i32* %8, align 4
  %75 = add nsw i32 %74, 1
  store i32 %75, i32* %8, align 4
  br label %21

76:                                               ; preds = %21
  store i32 0, i32* %8, align 4
  br label %77

77:                                               ; preds = %95, %76
  %78 = load i32, i32* %8, align 4
  %79 = load i32, i32* %10, align 4
  %80 = icmp slt i32 %78, %79
  br i1 %80, label %81, label %98

81:                                               ; preds = %77
  %82 = load i32, i32* %8, align 4
  %83 = sext i32 %82 to i64
  %84 = getelementptr inbounds [500 x i32], [500 x i32]* %11, i64 0, i64 %83
  %85 = load i32, i32* %84, align 4
  %86 = load i32, i32* %12, align 4
  %87 = icmp sgt i32 %85, %86
  br i1 %87, label %88, label %94

88:                                               ; preds = %81
  %89 = load i32, i32* %8, align 4
  store i32 %89, i32* %13, align 4
  %90 = load i32, i32* %8, align 4
  %91 = sext i32 %90 to i64
  %92 = getelementptr inbounds [500 x i32], [500 x i32]* %11, i64 0, i64 %91
  %93 = load i32, i32* %92, align 4
  store i32 %93, i32* %12, align 4
  br label %94

94:                                               ; preds = %88, %81
  br label %95

95:                                               ; preds = %94
  %96 = load i32, i32* %8, align 4
  %97 = add nsw i32 %96, 1
  store i32 %97, i32* %8, align 4
  br label %77

98:                                               ; preds = %77
  %99 = load i32, i32* %12, align 4
  %100 = icmp eq i32 %99, 0
  br i1 %100, label %101, label %103

101:                                              ; preds = %98
  %102 = call i32 (i8*, ...) @printf(i8* getelementptr inbounds ([3 x i8], [3 x i8]* @.str.2, i64 0, i64 0))
  br label %145

103:                                              ; preds = %98
  %104 = load i32, i32* %13, align 4
  %105 = sext i32 %104 to i64
  %106 = getelementptr inbounds [500 x i32], [500 x i32]* %11, i64 0, i64 %105
  %107 = load i32, i32* %106, align 4
  %108 = add nsw i32 %107, 1
  %109 = call i32 (i8*, ...) @printf(i8* getelementptr inbounds ([4 x i8], [4 x i8]* @.str.3, i64 0, i64 0), i32 %108)
  store i32 0, i32* %9, align 4
  br label %110

110:                                              ; preds = %141, %103
  %111 = load i32, i32* %9, align 4
  %112 = load i32, i32* %10, align 4
  %113 = icmp slt i32 %111, %112
  br i1 %113, label %114, label %144

114:                                              ; preds = %110
  %115 = load i32, i32* %9, align 4
  %116 = sext i32 %115 to i64
  %117 = getelementptr inbounds [500 x i32], [500 x i32]* %11, i64 0, i64 %116
  %118 = load i32, i32* %117, align 4
  %119 = load i32, i32* %12, align 4
  %120 = icmp eq i32 %118, %119
  br i1 %120, label %121, label %140

121:                                              ; preds = %114
  store i32 0, i32* %13, align 4
  br label %122

122:                                              ; preds = %135, %121
  %123 = load i32, i32* %13, align 4
  %124 = load i32, i32* %7, align 4
  %125 = icmp slt i32 %123, %124
  br i1 %125, label %126, label %138

126:                                              ; preds = %122
  %127 = load i32, i32* %9, align 4
  %128 = load i32, i32* %13, align 4
  %129 = add nsw i32 %127, %128
  %130 = sext i32 %129 to i64
  %131 = getelementptr inbounds [600 x i8], [600 x i8]* %6, i64 0, i64 %130
  %132 = load i8, i8* %131, align 1
  %133 = sext i8 %132 to i32
  %134 = call i32 (i8*, ...) @printf(i8* getelementptr inbounds ([3 x i8], [3 x i8]* @.str.4, i64 0, i64 0), i32 %133)
  br label %135

135:                                              ; preds = %126
  %136 = load i32, i32* %13, align 4
  %137 = add nsw i32 %136, 1
  store i32 %137, i32* %13, align 4
  br label %122

138:                                              ; preds = %122
  %139 = call i32 (i8*, ...) @printf(i8* getelementptr inbounds ([2 x i8], [2 x i8]* @.str.5, i64 0, i64 0))
  br label %140

140:                                              ; preds = %138, %114
  br label %141

141:                                              ; preds = %140
  %142 = load i32, i32* %9, align 4
  %143 = add nsw i32 %142, 1
  store i32 %143, i32* %9, align 4
  br label %110

144:                                              ; preds = %110
  br label %145

145:                                              ; preds = %144, %101
  ret i32 0
}

declare dso_local i32 @__isoc99_scanf(i8*, ...) #1

; Function Attrs: nounwind readonly
declare dso_local i64 @strlen(i8*) #2

; Function Attrs: argmemonly nounwind willreturn
declare void @llvm.memset.p0i8.i64(i8* nocapture writeonly, i8, i64, i1 immarg) #3

declare dso_local i32 @printf(i8*, ...) #1


!llvm.module.flags = !{!0}
!llvm.ident = !{!1}

!0 = !{i32 1, !"wchar_size", i32 4}
!1 = !{!"clang version 10.0.0-4ubuntu1 "}
